; Function Attrs: mustprogress nounwind uwtable
define dso_local i64 @_ZNK4llvm19TargetTransformInfo14getMinPageSizeEv(ptr nocapture noundef nonnull readonly align 8 dereferenceable(8) %0) local_unnamed_addr #0 align 2 {
  %2 = load i16, ptr getelementptr inbounds nuw (i8, ptr @_ZL11MinPageSize, i64 8), align 8
  %.not = icmp eq i16 %2, 0
  br i1 %.not, label %5, label %3

3:                                                ; preds = %1
  %4 = load i32, ptr getelementptr inbounds (i8, ptr @_ZL11MinPageSize, i64 128), align 8
  br label %12

5:                                                ; preds = %1
  %6 = load ptr, ptr %0, align 8
  %7 = load ptr, ptr %6, align 8
  %8 = getelementptr inbounds i8, ptr %7, i64 952
  %9 = load ptr, ptr %8, align 8
  %10 = tail call i64 %9(ptr noundef nonnull align 8 dereferenceable(8) %6) #25
  %.sroa.0.0.extract.trunc = trunc i64 %10 to i32
  %11 = and i64 %10, -4294967296
  br label %12

12:                                               ; preds = %5, %3
  %.sroa.0.0 = phi i32 [ %4, %3 ], [ %.sroa.0.0.extract.trunc, %5 ]
  %.sroa.3.0.insert.insert = phi i64 [ 4294967296, %3 ], [ %11, %5 ]
  %.sroa.0.0.insert.ext = zext i32 %.sroa.0.0 to i64
  %.sroa.0.0.insert.insert = or disjoint i64 %.sroa.3.0.insert.insert, %.sroa.0.0.insert.ext
  ret i64 %.sroa.0.0.insert.insert
}